; Function Attrs: mustprogress nofree norecurse nosync nounwind willreturn memory(read, inaccessiblemem: none) uwtable
define noundef i64 @_ZNK3nix11SymbolTable9totalSizeEv(ptr nocapture noundef nonnull readonly align 8 dereferenceable(88) %0) local_unnamed_addr #12 align 2 {
  %2 = getelementptr inbounds i8, ptr %0, i64 64
  %.val = load ptr, ptr %2, align 8
  %3 = getelementptr inbounds i8, ptr %0, i64 72
  %.val1 = load ptr, ptr %3, align 8
  %4 = icmp eq ptr %.val, %.val1
  br i1 %4, label %"_ZNK3nix11SymbolTable4dumpIZNKS0_9totalSizeEvE3$_0EEvT_.exit", label %.lr.ph12.i.i

.lr.ph12.i.i:                                     ; preds = %1, %._crit_edge.i.i
  %.0 = phi i64 [ %.1, %._crit_edge.i.i ], [ 0, %1 ]
  %.sroa.05.010.i.i = phi ptr [ %14, %._crit_edge.i.i ], [ %.val, %1 ]
  %5 = load ptr, ptr %.sroa.05.010.i.i, align 8
  %6 = getelementptr inbounds i8, ptr %.sroa.05.010.i.i, i64 8
  %7 = load ptr, ptr %6, align 8
  %8 = icmp eq ptr %5, %7
  br i1 %8, label %._crit_edge.i.i, label %.lr.ph.i.i

.lr.ph.i.i:                                       ; preds = %.lr.ph12.i.i, %.lr.ph.i.i
  %9 = phi i64 [ %11, %.lr.ph.i.i ], [ %.0, %.lr.ph12.i.i ]
  %.sroa.01.09.i.i = phi ptr [ %12, %.lr.ph.i.i ], [ %5, %.lr.ph12.i.i ]
  %10 = getelementptr i8, ptr %.sroa.01.09.i.i, i64 8
  %.val7.i.i = load i64, ptr %10, align 8
  %11 = add i64 %.val7.i.i, %9
  %12 = getelementptr inbounds i8, ptr %.sroa.01.09.i.i, i64 32
  %13 = icmp eq ptr %12, %7
  br i1 %13, label %._crit_edge.i.i, label %.lr.ph.i.i

._crit_edge.i.i:                                  ; preds = %.lr.ph.i.i, %.lr.ph12.i.i
  %.1 = phi i64 [ %.0, %.lr.ph12.i.i ], [ %11, %.lr.ph.i.i ]
  %14 = getelementptr inbounds i8, ptr %.sroa.05.010.i.i, i64 24
  %15 = icmp eq ptr %14, %.val1
  br i1 %15, label %"_ZNK3nix11SymbolTable4dumpIZNKS0_9totalSizeEvE3$_0EEvT_.exit", label %.lr.ph12.i.i

"_ZNK3nix11SymbolTable4dumpIZNKS0_9totalSizeEvE3$_0EEvT_.exit": ; preds = %._crit_edge.i.i, %1
  %.2 = phi i64 [ 0, %1 ], [ %.1, %._crit_edge.i.i ]
  ret i64 %.2
}